(lp0
Vspiderman is the one true web developer amirite
p1
aVremember y2k
p2
aVdoing this project makes me realize that I don't have many original tweets
p3
aVAt starbucks and I can't hear my thoughts
p4
a.